; Function Attrs: nounwind uwtable
define internal void @iof_sink_construct(ptr noundef initializes((448, 460), (464, 528)) %0) #0 {
  %2 = load i32, ptr @pmix_class_init_epoch, align 4, !tbaa !63
  %3 = load i32, ptr getelementptr inbounds nuw (i8, ptr @pmix_iof_write_event_t_class, i64 32), align 8, !tbaa !64
  %.not = icmp eq i32 %2, %3
  br i1 %.not, label %5, label %4

4:                                                ; preds = %1
  tail call void @pmix_class_initialize(ptr noundef nonnull @pmix_iof_write_event_t_class) #18
  br label %5

5:                                                ; preds = %4, %1
  %6 = getelementptr inbounds nuw i8, ptr %0, i64 408
  %7 = getelementptr inbounds nuw i8, ptr %0, i64 448
  store ptr @pmix_iof_write_event_t_class, ptr %7, align 8, !tbaa !65
  %8 = getelementptr inbounds nuw i8, ptr %0, i64 456
  store i32 1, ptr %8, align 8, !tbaa !66
  %9 = getelementptr inbounds nuw i8, ptr %0, i64 464
  tail call void @llvm.memset.p0.i64(ptr noundef nonnull align 8 dereferenceable(64) %9, i8 0, i64 64, i1 false)
  %10 = load ptr, ptr getelementptr inbounds nuw (i8, ptr @pmix_iof_write_event_t_class, i64 40), align 8, !tbaa !67
  %11 = load ptr, ptr %10, align 8, !tbaa !68
  %.not6.i = icmp eq ptr %11, null
  br i1 %.not6.i, label %pmix_obj_run_constructors.exit, label %.lr.ph.i

.lr.ph.i:                                         ; preds = %5, %.lr.ph.i
  %12 = phi ptr [ %14, %.lr.ph.i ], [ %11, %5 ]
  %.07.i = phi ptr [ %13, %.lr.ph.i ], [ %10, %5 ]
  tail call void %12(ptr noundef nonnull %6) #18
  %13 = getelementptr inbounds nuw i8, ptr %.07.i, i64 8
  %14 = load ptr, ptr %13, align 8, !tbaa !68
  %.not.i = icmp eq ptr %14, null
  br i1 %.not.i, label %pmix_obj_run_constructors.exit, label %.lr.ph.i, !llvm.loop !69

pmix_obj_run_constructors.exit:                   ; preds = %.lr.ph.i, %5
  %15 = getelementptr inbounds nuw i8, ptr %0, i64 864
  store i8 0, ptr %15, align 8, !tbaa !273
  %16 = getelementptr inbounds nuw i8, ptr %0, i64 865
  store i8 0, ptr %16, align 1, !tbaa !274
  %17 = getelementptr inbounds nuw i8, ptr %0, i64 866
  store i8 0, ptr %17, align 2, !tbaa !275
  ret void
}